; Function Attrs: nounwind uwtable
define ptr @l_Lean_PersistentHashMap_erase___at_Lean_Meta_Grind_EMatchTheorems_insert___spec__6___boxed(ptr noundef %0, ptr noundef %1) local_unnamed_addr #1 {
  %3 = getelementptr inbounds nuw i8, ptr %1, i64 8
  %4 = load ptr, ptr %3, align 8, !tbaa !9
  %5 = ptrtoint ptr %4 to i64
  %6 = and i64 %5, 1
  %.not.i7.i = icmp eq i64 %6, 0
  br i1 %.not.i7.i, label %7, label %l_Lean_Meta_Grind_Origin_key.exit.i

7:                                                ; preds = %2
  %.val.i.i.i = load i32, ptr %4, align 4, !tbaa !4
  %8 = icmp sgt i32 %.val.i.i.i, 0
  br i1 %8, label %9, label %11, !prof !11

9:                                                ; preds = %7
  %10 = add nuw i32 %.val.i.i.i, 1
  store i32 %10, ptr %4, align 4, !tbaa !4
  br label %14

11:                                               ; preds = %7
  %.not.i.i.i = icmp eq i32 %.val.i.i.i, 0
  br i1 %.not.i.i.i, label %14, label %12

12:                                               ; preds = %11
  tail call void @lean_inc_ref_cold(ptr noundef nonnull %4) #9
  br label %14

l_Lean_Meta_Grind_Origin_key.exit.i:              ; preds = %2
  %13 = tail call i64 @l_Lean_Name_hash___override(ptr noundef %4) #9
  br label %l_Lean_PersistentHashMap_erase___at_Lean_Meta_Grind_EMatchTheorems_insert___spec__6.exit

14:                                               ; preds = %12, %11, %9
  %15 = tail call i64 @l_Lean_Name_hash___override(ptr noundef nonnull %4) #9
  %16 = load i32, ptr %4, align 4, !tbaa !4
  %17 = icmp sgt i32 %16, 1
  br i1 %17, label %18, label %20, !prof !11

18:                                               ; preds = %14
  %19 = add nsw i32 %16, -1
  store i32 %19, ptr %4, align 4, !tbaa !4
  br label %l_Lean_PersistentHashMap_erase___at_Lean_Meta_Grind_EMatchTheorems_insert___spec__6.exit

20:                                               ; preds = %14
  %.not.i.i = icmp eq i32 %16, 0
  br i1 %.not.i.i, label %l_Lean_PersistentHashMap_erase___at_Lean_Meta_Grind_EMatchTheorems_insert___spec__6.exit, label %21

21:                                               ; preds = %20
  tail call void @lean_dec_ref_cold(ptr noundef nonnull %4) #9
  br label %l_Lean_PersistentHashMap_erase___at_Lean_Meta_Grind_EMatchTheorems_insert___spec__6.exit

l_Lean_PersistentHashMap_erase___at_Lean_Meta_Grind_EMatchTheorems_insert___spec__6.exit: ; preds = %l_Lean_Meta_Grind_Origin_key.exit.i, %18, %20, %21
  %22 = phi i64 [ %13, %l_Lean_Meta_Grind_Origin_key.exit.i ], [ %15, %18 ], [ %15, %20 ], [ %15, %21 ]
  %23 = tail call ptr @l_Lean_PersistentHashMap_eraseAux___at_Lean_Meta_Grind_EMatchTheorems_insert___spec__7(ptr noundef %0, i64 noundef %22, ptr noundef nonnull %1)
  %24 = ptrtoint ptr %1 to i64
  %25 = and i64 %24, 1
  %.not = icmp eq i64 %25, 0
  br i1 %.not, label %26, label %lean_dec.exit

26:                                               ; preds = %l_Lean_PersistentHashMap_erase___at_Lean_Meta_Grind_EMatchTheorems_insert___spec__6.exit
  %27 = load i32, ptr %1, align 4, !tbaa !4
  %28 = icmp sgt i32 %27, 1
  br i1 %28, label %29, label %31, !prof !11

29:                                               ; preds = %26
  %30 = add nsw i32 %27, -1
  store i32 %30, ptr %1, align 4, !tbaa !4
  br label %lean_dec.exit

31:                                               ; preds = %26
  %.not.i = icmp eq i32 %27, 0
  br i1 %.not.i, label %lean_dec.exit, label %32

32:                                               ; preds = %31
  tail call void @lean_dec_ref_cold(ptr noundef nonnull %1) #9
  br label %lean_dec.exit

lean_dec.exit:                                    ; preds = %32, %31, %29, %l_Lean_PersistentHashMap_erase___at_Lean_Meta_Grind_EMatchTheorems_insert___spec__6.exit
  ret ptr %23
}